; Function Attrs: mustprogress uwtable
define noundef ptr @_ZNK6icu_776Region18getPreferredValuesER10UErrorCode(ptr noundef nonnull readonly align 8 captures(none) dereferenceable(112) %0, ptr noundef nonnull align 4 dereferenceable(4) %1) local_unnamed_addr #1 align 2 personality ptr @__gxx_personality_v0 {
  %3 = load i32, ptr %1, align 4, !tbaa !13
  %4 = icmp slt i32 %3, 1
  br i1 %4, label %5, label %_ZN6icu_7713umtx_initOnceERNS_9UInitOnceEPFvR10UErrorCodeES3_.exit

5:                                                ; preds = %2
  %6 = load atomic i32, ptr @_ZN6icu_77L19gRegionDataInitOnceE acquire, align 4
  %.not11.i = icmp eq i32 %6, 2
  br i1 %.not11.i, label %11, label %7

7:                                                ; preds = %5
  %8 = tail call noundef signext i8 @_ZN6icu_7720umtx_initImplPreInitERNS_9UInitOnceE(ptr noundef nonnull align 4 dereferenceable(8) @_ZN6icu_77L19gRegionDataInitOnceE)
  %.not12.i = icmp eq i8 %8, 0
  br i1 %.not12.i, label %11, label %9

9:                                                ; preds = %7
  tail call void @_ZN6icu_776Region14loadRegionDataER10UErrorCode(ptr noundef nonnull align 4 dereferenceable(4) %1)
  %10 = load i32, ptr %1, align 4, !tbaa !13
  store i32 %10, ptr getelementptr inbounds nuw (i8, ptr @_ZN6icu_77L19gRegionDataInitOnceE, i64 4), align 4, !tbaa !98
  tail call void @_ZN6icu_7721umtx_initImplPostInitERNS_9UInitOnceE(ptr noundef nonnull align 4 dereferenceable(8) @_ZN6icu_77L19gRegionDataInitOnceE)
  br label %_ZN6icu_7713umtx_initOnceERNS_9UInitOnceEPFvR10UErrorCodeES3_.exit

11:                                               ; preds = %7, %5
  %12 = load i32, ptr getelementptr inbounds nuw (i8, ptr @_ZN6icu_77L19gRegionDataInitOnceE, i64 4), align 4, !tbaa !98
  %13 = icmp slt i32 %12, 1
  br i1 %13, label %_ZN6icu_7713umtx_initOnceERNS_9UInitOnceEPFvR10UErrorCodeES3_.exit, label %14

14:                                               ; preds = %11
  store i32 %12, ptr %1, align 4, !tbaa !13
  br label %_ZN6icu_7713umtx_initOnceERNS_9UInitOnceEPFvR10UErrorCodeES3_.exit

_ZN6icu_7713umtx_initOnceERNS_9UInitOnceEPFvR10UErrorCodeES3_.exit: ; preds = %2, %9, %11, %14
  %15 = load i32, ptr %1, align 4, !tbaa !13
  %16 = icmp slt i32 %15, 1
  %17 = getelementptr inbounds nuw i8, ptr %0, i64 84
  %18 = load i32, ptr %17, align 4
  %.not9 = icmp eq i32 %18, 6
  %or.cond = select i1 %16, i1 %.not9, i1 false
  br i1 %or.cond, label %19, label %27

19:                                               ; preds = %_ZN6icu_7713umtx_initOnceERNS_9UInitOnceEPFvR10UErrorCodeES3_.exit
  %20 = tail call noundef ptr @_ZN6icu_777UMemorynwEm(i64 noundef 128) #19
  %21 = icmp eq ptr %20, null
  br i1 %21, label %27, label %22

22:                                               ; preds = %19
  %23 = getelementptr inbounds nuw i8, ptr %0, i64 104
  %24 = load ptr, ptr %23, align 8, !tbaa !75
  invoke void @_ZN6icu_7721RegionNameEnumerationC1EPNS_7UVectorER10UErrorCode(ptr noundef nonnull align 8 dereferenceable(128) %20, ptr noundef %24, ptr noundef nonnull align 4 dereferenceable(4) %1)
          to label %27 unwind label %25

25:                                               ; preds = %22
  %26 = landingpad { ptr, i32 }
          cleanup
  tail call void @_ZN6icu_777UMemorydlEPv(ptr noundef nonnull %20) #19
  resume { ptr, i32 } %26

27:                                               ; preds = %19, %22, %_ZN6icu_7713umtx_initOnceERNS_9UInitOnceEPFvR10UErrorCodeES3_.exit
  %.0 = phi ptr [ null, %_ZN6icu_7713umtx_initOnceERNS_9UInitOnceEPFvR10UErrorCodeES3_.exit ], [ null, %19 ], [ %20, %22 ]
  ret ptr %.0
}